target datalayout = "e-m:e-p270:32:32-p271:32:32-p272:64:64-i64:64-i128:128-f80:128-n8:16:32:64-S128"
target triple = "x86_64-pc-linux-gnu"

%"struct.dap::TypeInfo" = type { ptr }
%"class.std::__cxx11::basic_string" = type { %"struct.std::__cxx11::basic_string<char>::_Alloc_hider", i64, %union.anon }
%"struct.std::__cxx11::basic_string<char>::_Alloc_hider" = type { ptr }
%union.anon = type { i64, [8 x i8] }
%"struct.dap::BasicTypeInfo.171" = type { %"struct.dap::TypeInfo", %"class.std::__cxx11::basic_string" }
%"class.std::allocator" = type { i8 }

@.str.127 = private unnamed_addr constant [1 x i8] zeroinitializer, align 1
@_ZTVN3dap8TypeInfoE = external unnamed_addr constant { [12 x ptr] }, align 8
@.str.133 = private unnamed_addr constant [50 x i8] c"basic_string: construction from null is not valid\00", align 1

; Function Attrs: mustprogress nounwind uwtable
define linkonce_odr dso_local void @_ZN3dap8TypeInfoC2Ev(ptr noundef nonnull align 8 dereferenceable(8) %0) unnamed_addr #3 comdat align 2 {
  %2 = alloca ptr, align 8
  store ptr %0, ptr %2, align 8
  %3 = load ptr, ptr %2, align 8
  store ptr getelementptr inbounds ({ [12 x ptr] }, ptr @_ZTVN3dap8TypeInfoE, i32 0, i32 0, i32 2), ptr %3, align 8
  ret void
}

; Function Attrs: mustprogress nounwind uwtable
define linkonce_odr dso_local noundef i64 @_ZNSt11char_traitsIcE6lengthEPKc(ptr noundef %0) #3 comdat align 2 {
  %2 = alloca ptr, align 8
  store ptr %0, ptr %2, align 8
  %3 = load ptr, ptr %2, align 8
  %4 = call i64 @strlen(ptr noundef %3) #4
  ret i64 %4
}

; Function Attrs: mustprogress nounwind uwtable
define linkonce_odr dso_local void @_ZNSt7__cxx1112basic_stringIcSt11char_traitsIcESaIcEE12_Alloc_hiderD2Ev(ptr noundef nonnull align 8 dereferenceable(8) %0) unnamed_addr #3 comdat align 2 {
  %2 = alloca ptr, align 8
  store ptr %0, ptr %2, align 8
  %3 = load ptr, ptr %2, align 8
  call void @_ZNSaIcED2Ev(ptr noundef nonnull align 1 dereferenceable(1) %3) #4
  ret void
}

; Function Attrs: mustprogress nounwind uwtable
define linkonce_odr dso_local void @_ZN3dap13BasicTypeInfoINS_6ThreadEEC2EONSt7__cxx1112basic_stringIcSt11char_traitsIcESaIcEEE(ptr noundef nonnull align 8 dereferenceable(40) %0, ptr noundef nonnull align 8 dereferenceable(32) %1) unnamed_addr #3 comdat align 2 {
  %3 = alloca ptr, align 8
  %4 = alloca ptr, align 8
  store ptr %0, ptr %3, align 8
  store ptr %1, ptr %4, align 8
  %5 = load ptr, ptr %3, align 8
  call void @_ZN3dap8TypeInfoC2Ev(ptr noundef nonnull align 8 dereferenceable(8) %5) #4
  store ptr getelementptr inbounds ({ [12 x ptr] }, ptr @_ZTVN3dap13BasicTypeInfoINS_6ThreadEEE, i32 0, i32 0, i32 2), ptr %5, align 8
  %6 = getelementptr inbounds %"struct.dap::BasicTypeInfo.171", ptr %5, i32 0, i32 1
  %7 = load ptr, ptr %4, align 8
  call void @_ZNSt7__cxx1112basic_stringIcSt11char_traitsIcESaIcEEC1EOS4_(ptr noundef nonnull align 8 dereferenceable(32) %6, ptr noundef nonnull align 8 dereferenceable(32) %7) #4
  ret void
}

; Function Attrs: mustprogress uwtable
define linkonce_odr dso_local void @_ZNSt7__cxx1112basic_stringIcSt11char_traitsIcESaIcEEC2IS3_EEPKcRKS3_(ptr noundef nonnull align 8 dereferenceable(32) %0, ptr noundef %1, ptr noundef nonnull align 1 dereferenceable(1) %2) unnamed_addr #0 comdat align 2 personality ptr @__gxx_personality_v0 {
  %4 = alloca ptr, align 8
  %5 = alloca ptr, align 8
  %6 = alloca ptr, align 8
  %7 = alloca ptr, align 8
  %8 = alloca i32, align 4
  %9 = alloca ptr, align 8
  store ptr %0, ptr %4, align 8
  store ptr %1, ptr %5, align 8
  store ptr %2, ptr %6, align 8
  %10 = load ptr, ptr %4, align 8
  %11 = getelementptr inbounds %"class.std::__cxx11::basic_string", ptr %10, i32 0, i32 0
  %12 = call noundef ptr @_ZNSt7__cxx1112basic_stringIcSt11char_traitsIcESaIcEE13_M_local_dataEv(ptr noundef nonnull align 8 dereferenceable(32) %10)
  %13 = load ptr, ptr %6, align 8
  call void @_ZNSt7__cxx1112basic_stringIcSt11char_traitsIcESaIcEE12_Alloc_hiderC1EPcRKS3_(ptr noundef nonnull align 8 dereferenceable(8) %11, ptr noundef %12, ptr noundef nonnull align 1 dereferenceable(1) %13)
  %14 = load ptr, ptr %5, align 8
  %15 = icmp eq ptr %14, null
  br i1 %15, label %16, label %22

16:                                               ; preds = %3
  invoke void @_ZSt19__throw_logic_errorPKc(ptr noundef @.str.133) #12
          to label %17 unwind label %18

17:                                               ; preds = %16
  unreachable

18:                                               ; preds = %26, %22, %16
  %19 = landingpad { ptr, i32 }
          cleanup
  %20 = extractvalue { ptr, i32 } %19, 0
  store ptr %20, ptr %7, align 8
  %21 = extractvalue { ptr, i32 } %19, 1
  store i32 %21, ptr %8, align 4
  call void @_ZNSt7__cxx1112basic_stringIcSt11char_traitsIcESaIcEE12_Alloc_hiderD2Ev(ptr noundef nonnull align 8 dereferenceable(8) %11) #4
  br label %31

22:                                               ; preds = %3
  %23 = load ptr, ptr %5, align 8
  %24 = load ptr, ptr %5, align 8
  %25 = invoke noundef i64 @_ZNSt11char_traitsIcE6lengthEPKc(ptr noundef %24)
          to label %26 unwind label %18

26:                                               ; preds = %22
  %27 = getelementptr inbounds i8, ptr %23, i64 %25
  store ptr %27, ptr %9, align 8
  %28 = load ptr, ptr %5, align 8
  %29 = load ptr, ptr %9, align 8
  invoke void @_ZNSt7__cxx1112basic_stringIcSt11char_traitsIcESaIcEE12_M_constructIPKcEEvT_S8_St20forward_iterator_tag(ptr noundef nonnull align 8 dereferenceable(32) %10, ptr noundef %28, ptr noundef %29)
          to label %30 unwind label %18

30:                                               ; preds = %26
  ret void

31:                                               ; preds = %18
  %32 = load ptr, ptr %7, align 8
  %33 = load i32, ptr %8, align 4
  %34 = insertvalue { ptr, i32 } poison, ptr %32, 0
  %35 = insertvalue { ptr, i32 } %34, i32 %33, 1
  resume { ptr, i32 } %35
}

; Function Attrs: mustprogress uwtable
define internal void @_ZZN3dap6TypeOfINS_6ThreadEE4typeEvEN2TIC2Ev(ptr noundef nonnull align 8 dereferenceable(40) %0) unnamed_addr #0 align 2 personality ptr @__gxx_personality_v0 {
  %2 = alloca ptr, align 8
  %3 = alloca %"class.std::__cxx11::basic_string", align 8
  %4 = alloca %"class.std::allocator", align 1
  %5 = alloca ptr, align 8
  %6 = alloca i32, align 4
  store ptr %0, ptr %2, align 8
  %7 = load ptr, ptr %2, align 8
  call void @_ZNSaIcEC1Ev(ptr noundef nonnull align 1 dereferenceable(1) %4) #4
  invoke void @_ZNSt7__cxx1112basic_stringIcSt11char_traitsIcESaIcEEC2IS3_EEPKcRKS3_(ptr noundef nonnull align 8 dereferenceable(32) %3, ptr noundef @.str.127, ptr noundef nonnull align 1 dereferenceable(1) %4)
          to label %8 unwind label %10

8:                                                ; preds = %1
  invoke void @_ZN3dap13BasicTypeInfoINS_6ThreadEEC2EONSt7__cxx1112basic_stringIcSt11char_traitsIcESaIcEEE(ptr noundef nonnull align 8 dereferenceable(40) %7, ptr noundef nonnull align 8 dereferenceable(32) %3)
          to label %9 unwind label %14

9:                                                ; preds = %8
  call void @_ZNSt7__cxx1112basic_stringIcSt11char_traitsIcESaIcEED1Ev(ptr noundef nonnull align 8 dereferenceable(32) %3) #4
  call void @_ZNSaIcED1Ev(ptr noundef nonnull align 1 dereferenceable(1) %4) #4
  store ptr getelementptr inbounds ({ [12 x ptr] }, ptr @_ZTVZN3dap6TypeOfINS_6ThreadEE4typeEvE2TI, i32 0, i32 0, i32 2), ptr %7, align 8
  ret void

10:                                               ; preds = %1
  %11 = landingpad { ptr, i32 }
          cleanup
  %12 = extractvalue { ptr, i32 } %11, 0
  store ptr %12, ptr %5, align 8
  %13 = extractvalue { ptr, i32 } %11, 1
  store i32 %13, ptr %6, align 4
  br label %18

14:                                               ; preds = %8
  %15 = landingpad { ptr, i32 }
          cleanup
  %16 = extractvalue { ptr, i32 } %15, 0
  store ptr %16, ptr %5, align 8
  %17 = extractvalue { ptr, i32 } %15, 1
  store i32 %17, ptr %6, align 4
  call void @_ZNSt7__cxx1112basic_stringIcSt11char_traitsIcESaIcEED1Ev(ptr noundef nonnull align 8 dereferenceable(32) %3) #4
  br label %18

18:                                               ; preds = %14, %10
  call void @_ZNSaIcED1Ev(ptr noundef nonnull align 1 dereferenceable(1) %4) #4
  br label %19

19:                                               ; preds = %18
  %20 = load ptr, ptr %5, align 8
  %21 = load i32, ptr %6, align 4
  %22 = insertvalue { ptr, i32 } poison, ptr %20, 0
  %23 = insertvalue { ptr, i32 } %22, i32 %21, 1
  resume { ptr, i32 } %23
}